target datalayout = "e-m:e-p270:32:32-p271:32:32-p272:64:64-i64:64-i128:128-f80:128-n8:16:32:64-S128"
target triple = "x86_64-pc-linux-gnu"

@hf_vrt_context_signal_data_format_packing = internal global i32 0, align 4
@hf_vrt_context_signal_data_format_type = internal global i32 0, align 4
@hf_vrt_context_signal_data_format_item = internal global i32 0, align 4
@hf_vrt_context_signal_data_format_repeat = internal global i32 0, align 4
@hf_vrt_context_signal_data_format_event_size = internal global i32 0, align 4
@hf_vrt_context_signal_data_format_channel_size = internal global i32 0, align 4
@hf_vrt_context_signal_data_format_fraction_size = internal global i32 0, align 4
@hf_vrt_context_signal_data_format_packing_size = internal global i32 0, align 4
@hf_vrt_context_signal_data_format_item_size = internal global i32 0, align 4
@hf_vrt_context_signal_data_format_repeat_count = internal global i32 0, align 4
@hf_vrt_context_signal_data_format_vector_size = internal global i32 0, align 4
@.str.518 = private unnamed_addr constant [34 x i8] c"Signal data packet payload format\00", align 1

; Function Attrs: null_pointer_is_valid sspstrong uwtable
define internal i32 @dissect_context_signal_data_format(ptr noundef %0, ptr noundef %1, i32 noundef %2) #0 {
  %4 = alloca ptr, align 8
  %5 = alloca ptr, align 8
  %6 = alloca i32, align 4
  %7 = alloca ptr, align 8
  store ptr %0, ptr %4, align 8
  store ptr %1, ptr %5, align 8
  store i32 %2, ptr %6, align 4
  call void @llvm.lifetime.start.p0(i64 8, ptr %7) #7
  %8 = load ptr, ptr %4, align 8
  %9 = load ptr, ptr %5, align 8
  %10 = load i32, ptr %6, align 4
  %11 = call ptr @proto_tree_add_subtree(ptr noundef %8, ptr noundef %9, i32 noundef %10, i32 noundef 8, i32 noundef 11, ptr noundef null, ptr noundef @.str.518)
  store ptr %11, ptr %7, align 8
  %12 = load ptr, ptr %7, align 8
  %13 = load i32, ptr @hf_vrt_context_signal_data_format_packing, align 4
  %14 = load ptr, ptr %5, align 8
  %15 = load i32, ptr %6, align 4
  %16 = call ptr @proto_tree_add_item(ptr noundef %12, i32 noundef %13, ptr noundef %14, i32 noundef %15, i32 noundef 1, i32 noundef 0)
  %17 = load ptr, ptr %7, align 8
  %18 = load i32, ptr @hf_vrt_context_signal_data_format_type, align 4
  %19 = load ptr, ptr %5, align 8
  %20 = load i32, ptr %6, align 4
  %21 = call ptr @proto_tree_add_item(ptr noundef %17, i32 noundef %18, ptr noundef %19, i32 noundef %20, i32 noundef 1, i32 noundef 0)
  %22 = load ptr, ptr %7, align 8
  %23 = load i32, ptr @hf_vrt_context_signal_data_format_item, align 4
  %24 = load ptr, ptr %5, align 8
  %25 = load i32, ptr %6, align 4
  %26 = call ptr @proto_tree_add_item(ptr noundef %22, i32 noundef %23, ptr noundef %24, i32 noundef %25, i32 noundef 1, i32 noundef 0)
  %27 = load i32, ptr %6, align 4
  %28 = add i32 %27, 1
  store i32 %28, ptr %6, align 4
  %29 = load ptr, ptr %7, align 8
  %30 = load i32, ptr @hf_vrt_context_signal_data_format_repeat, align 4
  %31 = load ptr, ptr %5, align 8
  %32 = load i32, ptr %6, align 4
  %33 = call ptr @proto_tree_add_item(ptr noundef %29, i32 noundef %30, ptr noundef %31, i32 noundef %32, i32 noundef 1, i32 noundef 0)
  %34 = load ptr, ptr %7, align 8
  %35 = load i32, ptr @hf_vrt_context_signal_data_format_event_size, align 4
  %36 = load ptr, ptr %5, align 8
  %37 = load i32, ptr %6, align 4
  %38 = call ptr @proto_tree_add_item(ptr noundef %34, i32 noundef %35, ptr noundef %36, i32 noundef %37, i32 noundef 1, i32 noundef 0)
  %39 = load ptr, ptr %7, align 8
  %40 = load i32, ptr @hf_vrt_context_signal_data_format_channel_size, align 4
  %41 = load ptr, ptr %5, align 8
  %42 = load i32, ptr %6, align 4
  %43 = call ptr @proto_tree_add_item(ptr noundef %39, i32 noundef %40, ptr noundef %41, i32 noundef %42, i32 noundef 1, i32 noundef 0)
  %44 = load i32, ptr %6, align 4
  %45 = add i32 %44, 1
  store i32 %45, ptr %6, align 4
  %46 = load ptr, ptr %7, align 8
  %47 = load i32, ptr @hf_vrt_context_signal_data_format_fraction_size, align 4
  %48 = load ptr, ptr %5, align 8
  %49 = load i32, ptr %6, align 4
  %50 = call ptr @proto_tree_add_item(ptr noundef %46, i32 noundef %47, ptr noundef %48, i32 noundef %49, i32 noundef 2, i32 noundef 0)
  %51 = load ptr, ptr %7, align 8
  %52 = load i32, ptr @hf_vrt_context_signal_data_format_packing_size, align 4
  %53 = load ptr, ptr %5, align 8
  %54 = load i32, ptr %6, align 4
  %55 = call ptr @proto_tree_add_item(ptr noundef %51, i32 noundef %52, ptr noundef %53, i32 noundef %54, i32 noundef 2, i32 noundef 0)
  %56 = load ptr, ptr %7, align 8
  %57 = load i32, ptr @hf_vrt_context_signal_data_format_item_size, align 4
  %58 = load ptr, ptr %5, align 8
  %59 = load i32, ptr %6, align 4
  %60 = call ptr @proto_tree_add_item(ptr noundef %56, i32 noundef %57, ptr noundef %58, i32 noundef %59, i32 noundef 2, i32 noundef 0)
  %61 = load i32, ptr %6, align 4
  %62 = add i32 %61, 2
  store i32 %62, ptr %6, align 4
  %63 = load ptr, ptr %7, align 8
  %64 = load i32, ptr @hf_vrt_context_signal_data_format_repeat_count, align 4
  %65 = load ptr, ptr %5, align 8
  %66 = load i32, ptr %6, align 4
  %67 = call ptr @proto_tree_add_item(ptr noundef %63, i32 noundef %64, ptr noundef %65, i32 noundef %66, i32 noundef 2, i32 noundef 0)
  %68 = load i32, ptr %6, align 4
  %69 = add i32 %68, 2
  store i32 %69, ptr %6, align 4
  %70 = load ptr, ptr %7, align 8
  %71 = load i32, ptr @hf_vrt_context_signal_data_format_vector_size, align 4
  %72 = load ptr, ptr %5, align 8
  %73 = load i32, ptr %6, align 4
  %74 = call ptr @proto_tree_add_item(ptr noundef %70, i32 noundef %71, ptr noundef %72, i32 noundef %73, i32 noundef 2, i32 noundef 0)
  call void @llvm.lifetime.end.p0(i64 8, ptr %7) #7
  ret i32 0
}