; Function Attrs: null_pointer_is_valid sspstrong uwtable
define internal noundef i32 @dissect_context_signal_data_format(ptr noundef %0, ptr noundef %1, i32 noundef %2) #0 {
  %4 = tail call ptr @proto_tree_add_subtree(ptr noundef %0, ptr noundef %1, i32 noundef %2, i32 noundef 8, i32 noundef 11, ptr noundef null, ptr noundef nonnull @.str.518)
  %5 = load i32, ptr @hf_vrt_context_signal_data_format_packing, align 4
  %6 = tail call ptr @proto_tree_add_item(ptr noundef %4, i32 noundef %5, ptr noundef %1, i32 noundef %2, i32 noundef 1, i32 noundef 0)
  %7 = load i32, ptr @hf_vrt_context_signal_data_format_type, align 4
  %8 = tail call ptr @proto_tree_add_item(ptr noundef %4, i32 noundef %7, ptr noundef %1, i32 noundef %2, i32 noundef 1, i32 noundef 0)
  %9 = load i32, ptr @hf_vrt_context_signal_data_format_item, align 4
  %10 = tail call ptr @proto_tree_add_item(ptr noundef %4, i32 noundef %9, ptr noundef %1, i32 noundef %2, i32 noundef 1, i32 noundef 0)
  %11 = add i32 %2, 1
  %12 = load i32, ptr @hf_vrt_context_signal_data_format_repeat, align 4
  %13 = tail call ptr @proto_tree_add_item(ptr noundef %4, i32 noundef %12, ptr noundef %1, i32 noundef %11, i32 noundef 1, i32 noundef 0)
  %14 = load i32, ptr @hf_vrt_context_signal_data_format_event_size, align 4
  %15 = tail call ptr @proto_tree_add_item(ptr noundef %4, i32 noundef %14, ptr noundef %1, i32 noundef %11, i32 noundef 1, i32 noundef 0)
  %16 = load i32, ptr @hf_vrt_context_signal_data_format_channel_size, align 4
  %17 = tail call ptr @proto_tree_add_item(ptr noundef %4, i32 noundef %16, ptr noundef %1, i32 noundef %11, i32 noundef 1, i32 noundef 0)
  %18 = add i32 %2, 2
  %19 = load i32, ptr @hf_vrt_context_signal_data_format_fraction_size, align 4
  %20 = tail call ptr @proto_tree_add_item(ptr noundef %4, i32 noundef %19, ptr noundef %1, i32 noundef %18, i32 noundef 2, i32 noundef 0)
  %21 = load i32, ptr @hf_vrt_context_signal_data_format_packing_size, align 4
  %22 = tail call ptr @proto_tree_add_item(ptr noundef %4, i32 noundef %21, ptr noundef %1, i32 noundef %18, i32 noundef 2, i32 noundef 0)
  %23 = load i32, ptr @hf_vrt_context_signal_data_format_item_size, align 4
  %24 = tail call ptr @proto_tree_add_item(ptr noundef %4, i32 noundef %23, ptr noundef %1, i32 noundef %18, i32 noundef 2, i32 noundef 0)
  %25 = add i32 %2, 4
  %26 = load i32, ptr @hf_vrt_context_signal_data_format_repeat_count, align 4
  %27 = tail call ptr @proto_tree_add_item(ptr noundef %4, i32 noundef %26, ptr noundef %1, i32 noundef %25, i32 noundef 2, i32 noundef 0)
  %28 = add i32 %2, 6
  %29 = load i32, ptr @hf_vrt_context_signal_data_format_vector_size, align 4
  %30 = tail call ptr @proto_tree_add_item(ptr noundef %4, i32 noundef %29, ptr noundef %1, i32 noundef %28, i32 noundef 2, i32 noundef 0)
  ret i32 0
}